target datalayout = "e-m:e-p270:32:32-p271:32:32-p272:64:64-i64:64-i128:128-f80:128-n8:16:32:64-S128"
target triple = "x86_64-pc-linux-gnu"

%struct.AVFilterContext = type { ptr, ptr, ptr, ptr, ptr, i32, ptr, ptr, i32, ptr, ptr, i32, i32, ptr, ptr, ptr, ptr, i32, ptr, i32, i32 }
%struct.TelecineContext = type { ptr, i32, ptr, i32, i64, %struct.AVRational, %struct.AVRational, i32, i32, i32, [4 x i32], [4 x i32], [5 x ptr], ptr }
%struct.AVRational = type { i32, i32 }

; Function Attrs: cold nounwind optsize uwtable
define internal void @uninit(ptr noundef %0) #0 {
  %2 = alloca ptr, align 8
  %3 = alloca ptr, align 8
  %4 = alloca i32, align 4
  store ptr %0, ptr %2, align 8, !tbaa !4
  call void @llvm.lifetime.start.p0(i64 8, ptr %3) #11
  %5 = load ptr, ptr %2, align 8, !tbaa !4
  %6 = getelementptr inbounds nuw %struct.AVFilterContext, ptr %5, i32 0, i32 9
  %7 = load ptr, ptr %6, align 8, !tbaa !9
  store ptr %7, ptr %3, align 8, !tbaa !22
  call void @llvm.lifetime.start.p0(i64 4, ptr %4) #11
  %8 = load ptr, ptr %3, align 8, !tbaa !22
  %9 = getelementptr inbounds nuw %struct.TelecineContext, ptr %8, i32 0, i32 13
  call void @av_frame_free(ptr noundef %9)
  store i32 0, ptr %4, align 4, !tbaa !24
  br label %10

10:                                               ; preds = %22, %1
  %11 = load i32, ptr %4, align 4, !tbaa !24
  %12 = load ptr, ptr %3, align 8, !tbaa !22
  %13 = getelementptr inbounds nuw %struct.TelecineContext, ptr %12, i32 0, i32 7
  %14 = load i32, ptr %13, align 8, !tbaa !37
  %15 = icmp slt i32 %11, %14
  br i1 %15, label %16, label %25

16:                                               ; preds = %10
  %17 = load ptr, ptr %3, align 8, !tbaa !22
  %18 = getelementptr inbounds nuw %struct.TelecineContext, ptr %17, i32 0, i32 12
  %19 = load i32, ptr %4, align 4, !tbaa !24
  %20 = sext i32 %19 to i64
  %21 = getelementptr inbounds [5 x ptr], ptr %18, i64 0, i64 %20
  call void @av_frame_free(ptr noundef %21)
  br label %22

22:                                               ; preds = %16
  %23 = load i32, ptr %4, align 4, !tbaa !24
  %24 = add nsw i32 %23, 1
  store i32 %24, ptr %4, align 4, !tbaa !24
  br label %10, !llvm.loop !38

25:                                               ; preds = %10
  call void @llvm.lifetime.end.p0(i64 4, ptr %4) #11
  call void @llvm.lifetime.end.p0(i64 8, ptr %3) #11
  ret void
}