; Function Attrs: cold nounwind optsize uwtable
define internal void @uninit(ptr noundef readonly captures(none) %0) #0 {
  %2 = getelementptr inbounds nuw i8, ptr %0, i64 72
  %3 = load ptr, ptr %2, align 8, !tbaa !4
  %4 = getelementptr inbounds nuw i8, ptr %3, i64 144
  tail call void @av_frame_free(ptr noundef nonnull %4) #5
  %5 = getelementptr inbounds nuw i8, ptr %3, i64 56
  %6 = load i32, ptr %5, align 8, !tbaa !31
  %7 = icmp sgt i32 %6, 0
  br i1 %7, label %.lr.ph, label %._crit_edge

.lr.ph:                                           ; preds = %1
  %8 = getelementptr inbounds nuw i8, ptr %3, i64 104
  br label %9

9:                                                ; preds = %.lr.ph, %9
  %indvars.iv = phi i64 [ 0, %.lr.ph ], [ %indvars.iv.next, %9 ]
  %10 = getelementptr inbounds nuw [5 x ptr], ptr %8, i64 0, i64 %indvars.iv
  tail call void @av_frame_free(ptr noundef nonnull %10) #5
  %indvars.iv.next = add nuw nsw i64 %indvars.iv, 1
  %11 = load i32, ptr %5, align 8, !tbaa !31
  %12 = sext i32 %11 to i64
  %13 = icmp slt i64 %indvars.iv.next, %12
  br i1 %13, label %9, label %._crit_edge, !llvm.loop !32

._crit_edge:                                      ; preds = %9, %1
  ret void
}